target datalayout = "e-m:e-p270:32:32-p271:32:32-p272:64:64-i64:64-i128:128-f80:128-n8:16:32:64-S128"
target triple = "x86_64-pc-linux-gnu"

%struct.png_XYZ = type { i32, i32, i32, i32, i32, i32, i32, i32, i32 }
%struct.png_xy = type { i32, i32, i32, i32, i32, i32, i32, i32 }
%struct.png_struct_def = type { [1 x %struct.__jmp_buf_tag], ptr, ptr, i64, ptr, ptr, ptr, ptr, ptr, ptr, ptr, ptr, ptr, i8, i8, i32, i32, i32, i32, %struct.z_stream_s, ptr, i32, i32, i32, i32, i32, i32, i32, i32, i32, i32, i32, i32, i32, i32, i32, i32, i32, i32, i32, i32, i64, i32, i32, i32, ptr, ptr, ptr, ptr, i64, i32, i32, ptr, i16, i32, i16, i8, i8, i8, i8, i8, i8, i8, i8, i8, i8, i8, i8, i8, i8, i8, i16, i8, i32, %struct.png_color_16_struct, %struct.png_color_16_struct, ptr, i32, i32, i32, i32, ptr, ptr, ptr, ptr, ptr, ptr, %struct.png_color_8_struct, %struct.png_color_8_struct, ptr, %struct.png_color_16_struct, ptr, ptr, ptr, ptr, ptr, ptr, ptr, ptr, ptr, i32, i32, i64, i64, i64, i64, i32, i32, ptr, ptr, i32, [29 x i8], i32, ptr, ptr, i32, i32, ptr, i8, i8, i16, i16, ptr, i32, i8, ptr, ptr, ptr, ptr, ptr, ptr, ptr, i8, i32, i32, i32, i64, %struct.png_unknown_chunk_t, i64, ptr, i64, i32, i32, ptr, [4 x ptr], %struct.png_colorspace }
%struct.__jmp_buf_tag = type { [8 x i64], i32, %struct.__sigset_t }
%struct.__sigset_t = type { [16 x i64] }
%struct.z_stream_s = type { ptr, i32, i64, ptr, i32, i64, ptr, ptr, ptr, ptr, ptr, i32, i64, i64 }
%struct.png_color_8_struct = type { i8, i8, i8, i8, i8 }
%struct.png_color_16_struct = type { i8, i16, i16, i16, i16 }
%struct.png_unknown_chunk_t = type { [5 x i8], ptr, i64, i8 }
%struct.png_colorspace = type { i32, %struct.png_xy, %struct.png_XYZ, i16, i16 }

; Function Attrs: nounwind uwtable
define zeroext i16 @png_gamma_16bit_correct(i32 noundef %0, i32 noundef %1) #0 {
  %3 = alloca i16, align 2
  %4 = alloca i32, align 4
  %5 = alloca i32, align 4
  %6 = alloca double, align 8
  store i32 %0, ptr %4, align 4
  store i32 %1, ptr %5, align 4
  %7 = load i32, ptr %4, align 4
  %8 = icmp ugt i32 %7, 0
  br i1 %8, label %9, label %24

9:                                                ; preds = %2
  %10 = load i32, ptr %4, align 4
  %11 = icmp ult i32 %10, 65535
  br i1 %11, label %12, label %24

12:                                               ; preds = %9
  %13 = load i32, ptr %4, align 4
  %14 = sitofp i32 %13 to double
  %15 = fdiv double %14, 6.553500e+04
  %16 = load i32, ptr %5, align 4
  %17 = sitofp i32 %16 to double
  %18 = fmul double %17, 1.000000e-05
  %19 = call double @pow(double noundef %15, double noundef %18) #13
  %20 = call double @llvm.fmuladd.f64(double 6.553500e+04, double %19, double 5.000000e-01)
  %21 = call double @llvm.floor.f64(double %20)
  store double %21, ptr %6, align 8
  %22 = load double, ptr %6, align 8
  %23 = fptoui double %22 to i16
  store i16 %23, ptr %3, align 2
  br label %27

24:                                               ; preds = %9, %2
  %25 = load i32, ptr %4, align 4
  %26 = trunc i32 %25 to i16
  store i16 %26, ptr %3, align 2
  br label %27

27:                                               ; preds = %24, %12
  %28 = load i16, ptr %3, align 2
  ret i16 %28
}

; Function Attrs: nounwind uwtable
define zeroext i8 @png_gamma_8bit_correct(i32 noundef %0, i32 noundef %1) #0 {
  %3 = alloca i8, align 1
  %4 = alloca i32, align 4
  %5 = alloca i32, align 4
  %6 = alloca double, align 8
  store i32 %0, ptr %4, align 4
  store i32 %1, ptr %5, align 4
  %7 = load i32, ptr %4, align 4
  %8 = icmp ugt i32 %7, 0
  br i1 %8, label %9, label %24

9:                                                ; preds = %2
  %10 = load i32, ptr %4, align 4
  %11 = icmp ult i32 %10, 255
  br i1 %11, label %12, label %24

12:                                               ; preds = %9
  %13 = load i32, ptr %4, align 4
  %14 = sitofp i32 %13 to double
  %15 = fdiv double %14, 2.550000e+02
  %16 = load i32, ptr %5, align 4
  %17 = sitofp i32 %16 to double
  %18 = fmul double %17, 1.000000e-05
  %19 = call double @pow(double noundef %15, double noundef %18) #13
  %20 = call double @llvm.fmuladd.f64(double 2.550000e+02, double %19, double 5.000000e-01)
  %21 = call double @llvm.floor.f64(double %20)
  store double %21, ptr %6, align 8
  %22 = load double, ptr %6, align 8
  %23 = fptoui double %22 to i8
  store i8 %23, ptr %3, align 1
  br label %28

24:                                               ; preds = %9, %2
  %25 = load i32, ptr %4, align 4
  %26 = and i32 %25, 255
  %27 = trunc i32 %26 to i8
  store i8 %27, ptr %3, align 1
  br label %28

28:                                               ; preds = %24, %12
  %29 = load i8, ptr %3, align 1
  ret i8 %29
}

; Function Attrs: nounwind uwtable
define zeroext i16 @png_gamma_correct(ptr noalias noundef %0, i32 noundef %1, i32 noundef %2) #0 {
  %4 = alloca i16, align 2
  %5 = alloca ptr, align 8
  %6 = alloca i32, align 4
  %7 = alloca i32, align 4
  store ptr %0, ptr %5, align 8
  store i32 %1, ptr %6, align 4
  store i32 %2, ptr %7, align 4
  %8 = load ptr, ptr %5, align 8
  %9 = getelementptr inbounds %struct.png_struct_def, ptr %8, i32 0, i32 62
  %10 = load i8, ptr %9, align 8
  %11 = zext i8 %10 to i32
  %12 = icmp eq i32 %11, 8
  br i1 %12, label %13, label %18

13:                                               ; preds = %3
  %14 = load i32, ptr %6, align 4
  %15 = load i32, ptr %7, align 4
  %16 = call zeroext i8 @png_gamma_8bit_correct(i32 noundef %14, i32 noundef %15)
  %17 = zext i8 %16 to i16
  store i16 %17, ptr %4, align 2
  br label %22

18:                                               ; preds = %3
  %19 = load i32, ptr %6, align 4
  %20 = load i32, ptr %7, align 4
  %21 = call zeroext i16 @png_gamma_16bit_correct(i32 noundef %19, i32 noundef %20)
  store i16 %21, ptr %4, align 2
  br label %22

22:                                               ; preds = %18, %13
  %23 = load i16, ptr %4, align 2
  ret i16 %23
}