; Function Attrs: mustprogress nofree nounwind willreturn memory(write, argmem: readwrite) uwtable
define zeroext i16 @png_gamma_correct(ptr noalias nocapture noundef readonly %0, i32 noundef %1, i32 noundef %2) local_unnamed_addr #21 {
  %4 = getelementptr inbounds i8, ptr %0, i64 616
  %5 = load i8, ptr %4, align 8
  %6 = icmp eq i8 %5, 8
  %7 = add i32 %1, -1
  br i1 %6, label %8, label %21

8:                                                ; preds = %3
  %or.cond.i = icmp ult i32 %7, 254
  br i1 %or.cond.i, label %9, label %18

9:                                                ; preds = %8
  %10 = uitofp nneg i32 %1 to double
  %11 = fdiv double %10, 2.550000e+02
  %12 = sitofp i32 %2 to double
  %13 = fmul double %12, 1.000000e-05
  %14 = tail call double @pow(double noundef %11, double noundef %13) #29
  %15 = tail call double @llvm.fmuladd.f64(double %14, double 2.550000e+02, double 5.000000e-01)
  %16 = tail call double @llvm.floor.f64(double %15)
  %17 = fptoui double %16 to i8
  br label %png_gamma_8bit_correct.exit

18:                                               ; preds = %8
  %19 = trunc i32 %1 to i8
  br label %png_gamma_8bit_correct.exit

png_gamma_8bit_correct.exit:                      ; preds = %9, %18
  %.0.i = phi i8 [ %17, %9 ], [ %19, %18 ]
  %20 = zext i8 %.0.i to i16
  br label %png_gamma_16bit_correct.exit

21:                                               ; preds = %3
  %or.cond.i5 = icmp ult i32 %7, 65534
  br i1 %or.cond.i5, label %22, label %31

22:                                               ; preds = %21
  %23 = uitofp nneg i32 %1 to double
  %24 = fdiv double %23, 6.553500e+04
  %25 = sitofp i32 %2 to double
  %26 = fmul double %25, 1.000000e-05
  %27 = tail call double @pow(double noundef %24, double noundef %26) #29
  %28 = tail call double @llvm.fmuladd.f64(double %27, double 6.553500e+04, double 5.000000e-01)
  %29 = tail call double @llvm.floor.f64(double %28)
  %30 = fptoui double %29 to i16
  br label %png_gamma_16bit_correct.exit

31:                                               ; preds = %21
  %32 = trunc i32 %1 to i16
  br label %png_gamma_16bit_correct.exit

png_gamma_16bit_correct.exit:                     ; preds = %31, %22, %png_gamma_8bit_correct.exit
  %.0 = phi i16 [ %20, %png_gamma_8bit_correct.exit ], [ %30, %22 ], [ %32, %31 ]
  ret i16 %.0
}